(ikeras_frcnn.config
Config
p0
(dp1
S'use_vertical_flips'
p2
I00
sS'verbose'
p3
I01
sS'classifier_regr_std'
p4
(lp5
F8.0
aF8.0
aF4.0
aF4.0
asS'classifier_min_overlap'
p6
F0.1
sS'rot_90'
p7
I00
sS'class_mapping'
p8
(dp9
S'10'
p10
I9
sS'bg'
p11
I10
sS'1'
p12
I0
sS'3'
p13
I3
sS'2'
p14
I2
sS'5'
p15
I4
sS'4'
p16
I7
sS'7'
p17
I6
sS'6'
p18
I8
sS'9'
p19
I1
sS'8'
p20
I5
ssS'use_horizontal_flips'
p21
I00
sS'rpn_max_overlap'
p22
F0.7
sS'img_channel_mean'
p23
(lp24
F103.939
aF116.779
aF123.68
asS'balanced_classes'
p25
I00
sS'anchor_box_ratios'
p26
(lp27
(lp28
I1
aI1
aa(lp29
I1
aI2
aa(lp30
I2
aI1
aasS'img_scaling_factor'
p31
F1.0
sS'rpn_stride'
p32
I16
sS'num_rois'
p33
I32
sS'base_net_weights'
p34
S'resnet50_weights_tf_dim_ordering_tf_kernels.h5'
p35
sS'anchor_box_scales'
p36
(lp37
I128
aI256
aI512
asS'augmenter'
p38
S'advanced'
p39
sS'rpn_min_overlap'
p40
F0.3
sS'model_path'
p41
S'./model_frcnn.hdf5'
p42
sS'classifier_max_overlap'
p43
F0.5
sS'std_scaling'
p44
F4.0
sS'im_size'
p45
I600
sb.